(dp0
S'METTS MARK'
p1
(dp2
S'salary'
p3
F365788.0
sS'poi_receive_ratio'
p4
F0.034482758620689655
sS'bonus'
p5
F600000.0
sS'net_earnings'
p6
F1646889.0
sS'total_stock_value'
p7
F585062.0
sS'exercised_stock_options'
p8
F1297049.0
sS'poi_overall_ratio'
p9
F0.08157073879417168
sS'poi'
p10
I00
sS'deferred_income'
p11
F-151927.0
ssS'BAXTER JOHN C'
p12
(dp13
g3
F267102.0
sg4
F0.1951219512195122
sg5
F1200000.0
sg6
F16257601.0
sg7
F10623258.0
sg8
F6680544.0
sg9
F0.22402368532355843
sg10
I00
sg11
F-1386055.0
ssS'ELLIOTT STEVEN'
p14
(dp15
g3
F170941.0
sg4
F0.1951219512195122
sg5
F350000.0
sg6
F6890460.0
sg7
F6678735.0
sg8
F4890344.0
sg9
F0.22402368532355843
sg10
I00
sg11
F-400729.0
ssS'CORDES WILLIAM R'
p16
(dp17
g3
F258741.0
sg4
F0.0
sg5
F750000.0
sg6
F2139578.0
sg7
F1038185.0
sg8
F651850.0
sg9
F0.013089005235602094
sg10
I00
sg11
F-151927.0
ssS'HANNON KEVIN P'
p18
(dp19
g3
F243293.0
sg4
F0.65625
sg5
F1500000.0
sg6
F6679747.0
sg7
F6391065.0
sg8
F5538001.0
sg9
F0.686872009569378
sg10
I01
sg11
F-3117011.0
ssS'MORDAUNT KRISTINA M'
p20
(dp21
g3
F267093.0
sg4
F0.1951219512195122
sg5
F325000.0
sg6
F837032.0
sg7
F208510.0
sg8
F1297049.0
sg9
F0.22402368532355843
sg10
I00
sg11
F-151927.0
ssS'MEYER ROCKFORD G'
p22
(dp23
g3
F258741.0
sg4
F0.0
sg5
F750000.0
sg6
F2804100.0
sg7
F955873.0
sg8
F493489.0
sg9
F0.0
sg10
I00
sg11
F-151927.0
ssS'MCMAHON JEFFREY'
p24
(dp25
g3
F370448.0
sg4
F0.5416666666666666
sg5
F2600000.0
sg6
F5762626.0
sg7
F1662855.0
sg8
F1104054.0
sg9
F0.5662951167728237
sg10
I00
sg11
F-151927.0
ssS'HORTON STANLEY C'
p26
(dp27
g3
F258741.0
sg4
F0.013979496738117428
sg5
F750000.0
sg6
F10388508.0
sg7
F7256648.0
sg8
F5210569.0
sg9
F0.032702900993436576
sg10
I00
sg11
F-151927.0
ssS'PIPER GREGORY F'
p28
(dp29
g3
F197091.0
sg4
F0.21621621621621623
sg5
F400000.0
sg6
F2617919.0
sg7
F880290.0
sg8
F880290.0
sg9
F0.26548923721783174
sg10
I00
sg11
F-33333.0
ssS'HUMPHREY GENE E'
p30
(dp31
g3
F130724.0
sg4
F1.0
sg5
F750000.0
sg6
F5382992.0
sg7
F2282768.0
sg8
F2282768.0
sg9
F1.078125
sg10
I00
sg11
F-151927.0
ssS'UMANOFF ADAM S'
p32
(dp33
g3
F288589.0
sg4
F0.0
sg5
F788750.0
sg6
F2225501.0
sg7
F1095040.0
sg8
F1297049.0
sg9
F0.10810810810810811
sg10
I00
sg11
F-151927.0
ssS'BLACHMAN JEREMY M'
p34
(dp35
g3
F248546.0
sg4
F0.14285714285714285
sg5
F850000.0
sg6
F2969189.0
sg7
F954354.0
sg8
F765313.0
sg9
F0.15295815295815296
sg10
I00
sg11
F-151927.0
ssS'SUNDE MARTIN'
p36
(dp37
g3
F257486.0
sg4
F0.34210526315789475
sg5
F700000.0
sg6
F2243979.0
sg7
F698920.0
sg8
F1297049.0
sg9
F0.3560833515598592
sg10
I00
sg11
F-151927.0
ssS'GIBBS DANA R'
p38
(dp39
g3
F258741.0
sg4
F0.0
sg5
F750000.0
sg6
F3184797.0
sg7
F2218275.0
sg8
F2218275.0
sg9
F0.0
sg10
I00
sg11
F-151927.0
ssS'LOWRY CHARLES P'
p40
(dp41
g3
F258741.0
sg4
F0.1951219512195122
sg5
F750000.0
sg6
F1473598.0
sg7
F372205.0
sg8
F372205.0
sg9
F0.22402368532355843
sg10
I00
sg11
F-151927.0
ssS'COLWELL WESLEY'
p42
(dp43
g3
F288542.0
sg4
F0.275
sg5
F1200000.0
sg6
F2188586.0
sg7
F698242.0
sg8
F1297049.0
sg9
F0.4115187713310581
sg10
I01
sg11
F-144062.0
ssS'MULLER MARK S'
p44
(dp45
g3
F251654.0
sg4
F0.0
sg5
F1100000.0
sg6
F4618918.0
sg7
F1416848.0
sg8
F1056320.0
sg9
F0.08823529411764706
sg10
I00
sg11
F-719000.0
ssS'JACKSON CHARLENE R'
p46
(dp47
g3
F288558.0
sg4
F0.3392857142857143
sg5
F250000.0
sg6
F1276909.0
sg7
F725735.0
sg8
F185063.0
sg9
F0.43618493909191586
sg10
I00
sg11
F-151927.0
ssS'WESTFAHL RICHARD K'
p48
(dp49
g3
F63744.0
sg4
F0.1951219512195122
sg5
F750000.0
sg6
F1147065.0
sg7
F384930.0
sg8
F1297049.0
sg9
F0.22402368532355843
sg10
I00
sg11
F-10800.0
ssS'WALTERS GARETH W'
p50
(dp51
g3
F258741.0
sg4
F0.1951219512195122
sg5
F750000.0
sg6
F1117739.0
sg7
F1030329.0
sg8
F1030329.0
sg9
F0.22402368532355843
sg10
I00
sg11
F-151927.0
ssS'WALLS JR ROBERT H'
p52
(dp53
g3
F357091.0
sg4
F0.0
sg5
F850000.0
sg6
F7697777.0
sg7
F5898997.0
sg8
F4346544.0
sg9
F0.02533532041728763
sg10
I00
sg11
F-151927.0
ssS'KITCHEN LOUISE'
p54
(dp55
g3
F271442.0
sg4
F0.11226851851851852
sg5
F3100000.0
sg6
F4018284.0
sg7
F547143.0
sg8
F81042.0
sg9
F0.14249127589359378
sg10
I00
sg11
F-151927.0
ssS'CHAN RONNIE'
p56
(dp57
g3
F258741.0
sg4
F0.1951219512195122
sg5
F750000.0
sg6
F2196433.0
sg7
F1095040.0
sg8
F1297049.0
sg9
F0.22402368532355843
sg10
I00
sg11
F-98784.0
ssS'BELFER ROBERT'
p58
(dp59
g3
F258741.0
sg4
F0.1951219512195122
sg5
F750000.0
sg6
F58407.0
sg7
F-44093.0
sg8
F3285.0
sg9
F0.22402368532355843
sg10
I00
sg11
F-151927.0
ssS'SHANKMAN JEFFREY A'
p60
(dp61
g3
F304110.0
sg4
F0.030958597538232
sg5
F2000000.0
sg6
F5110737.0
sg7
F2072035.0
sg8
F1441898.0
sg9
F0.06014208092848347
sg10
I00
sg11
F-151927.0
ssS'WODRASKA JOHN'
p62
(dp63
g3
F258741.0
sg4
F0.1951219512195122
sg5
F750000.0
sg6
F1284623.0
sg7
F1095040.0
sg8
F1297049.0
sg9
F0.22402368532355843
sg10
I00
sg11
F-151927.0
ssS'BERGSIEKER RICHARD P'
p64
(dp65
g3
F187922.0
sg4
F0.0
sg5
F250000.0
sg6
F1278099.0
sg7
F659249.0
sg8
F1297049.0
sg9
F0.010443864229765013
sg10
I00
sg11
F-485813.0
ssS'URQUHART JOHN A'
p66
(dp67
g3
F258741.0
sg4
F0.1951219512195122
sg5
F750000.0
sg6
F1323696.0
sg7
F1095040.0
sg8
F1297049.0
sg9
F0.22402368532355843
sg10
I00
sg11
F-36666.0
ssS'BIBI PHILIPPE A'
p68
(dp69
g3
F213625.0
sg4
F0.2
sg5
F1000000.0
sg6
F3891409.0
sg7
F1843816.0
sg8
F1465734.0
sg9
F0.21431238332296204
sg10
I00
sg11
F-151927.0
ssS'PIRO JIM'
p70
(dp71
g3
F258741.0
sg4
F0.0625
sg5
F750000.0
sg6
F1148697.0
sg7
F47304.0
sg8
F1297049.0
sg9
F0.0625
sg10
I00
sg11
F-151927.0
ssS'RIEKER PAULA H'
p72
(dp73
g3
F249201.0
sg4
F0.5853658536585366
sg5
F700000.0
sg6
F3017987.0
sg7
F1918887.0
sg8
F1635238.0
sg9
F0.6117212753452835
sg10
I01
sg11
F-100000.0
ssS'WHALEY DAVID A'
p74
(dp75
g3
F258741.0
sg4
F0.1951219512195122
sg5
F750000.0
sg6
F1200111.0
sg7
F98718.0
sg8
F98718.0
sg9
F0.22402368532355843
sg10
I00
sg11
F-151927.0
ssS'BECK SALLY W'
p76
(dp77
g3
F231330.0
sg4
F0.08887865530739121
sg5
F700000.0
sg6
F1095095.0
sg7
F126027.0
sg8
F1297049.0
sg9
F0.10856423288770563
sg10
I00
sg11
F-151927.0
ssS'HAUG DAVID L'
p78
(dp79
g3
F258741.0
sg4
F0.3684210526315789
sg5
F750000.0
sg6
F2217774.0
sg7
F2217299.0
sg8
F1297049.0
sg9
F0.37540185542390003
sg10
I00
sg11
F-151927.0
ssS'ECHOLS JOHN B'
p80
(dp81
g3
F182245.0
sg4
F0.1951219512195122
sg5
F200000.0
sg6
F3701265.0
sg7
F1008941.0
sg8
F601438.0
sg9
F0.22402368532355843
sg10
I00
sg11
F-151927.0
ssS'MENDELSOHN JOHN'
p82
(dp83
g3
F258741.0
sg4
F0.1951219512195122
sg5
F750000.0
sg6
F1095188.0
sg7
F1095040.0
sg8
F1297049.0
sg9
F0.22402368532355843
sg10
I00
sg11
F-103750.0
ssS'HICKERSON GARY J'
p84
(dp85
g3
F211788.0
sg4
F0.037037037037037035
sg5
F1700000.0
sg6
F2522892.0
sg7
F441096.0
sg8
F1297049.0
sg9
F0.06734006734006734
sg10
I00
sg11
F-151927.0
ssS'CLINE KENNETH W'
p86
(dp87
g3
F258741.0
sg4
F0.1951219512195122
sg5
F750000.0
sg6
F1290911.0
sg7
F189518.0
sg8
F1297049.0
sg9
F0.22402368532355843
sg10
I00
sg11
F-151927.0
ssS'LEWIS RICHARD'
p88
(dp89
g3
F258741.0
sg4
F0.0
sg5
F750000.0
sg6
F1951870.0
sg7
F850477.0
sg8
F850477.0
sg9
F0.01050420168067227
sg10
I00
sg11
F-151927.0
ssS'HAYES ROBERT E'
p90
(dp91
g3
F258741.0
sg4
F0.0
sg5
F750000.0
sg6
F159379.0
sg7
F151418.0
sg8
F1297049.0
sg9
F0.031746031746031744
sg10
I00
sg11
F-151927.0
ssS'KOPPER MICHAEL J'
p92
(dp93
g3
F224305.0
sg4
F0.1951219512195122
sg5
F800000.0
sg6
F3637644.0
sg7
F985032.0
sg8
F1297049.0
sg9
F0.22402368532355843
sg10
I01
sg11
F-151927.0
ssS'LEFF DANIEL P'
p94
(dp95
g3
F273746.0
sg4
F0.2222222222222222
sg5
F1000000.0
sg6
F3024756.0
sg7
F360528.0
sg8
F1297049.0
sg9
F0.24596424915347664
sg10
I00
sg11
F-151927.0
ssS'LAVORATO JOHN J'
p96
(dp97
g3
F339288.0
sg4
F0.15899419729206962
sg5
F8000000.0
sg6
F15592901.0
sg7
F5167144.0
sg8
F4158995.0
sg9
F0.23173148893003628
sg10
I00
sg11
F-151927.0
ssS'BERBERIAN DAVID'
p98
(dp99
g3
F216582.0
sg4
F0.1951219512195122
sg5
F750000.0
sg6
F2722090.0
sg7
F2493616.0
sg8
F1624396.0
sg9
F0.22402368532355843
sg10
I00
sg11
F-151927.0
ssS'DETMERING TIMOTHY J'
p100
(dp101
g3
F210500.0
sg4
F0.1951219512195122
sg5
F425000.0
sg6
F3232448.0
sg7
F2027865.0
sg8
F2027865.0
sg9
F0.22402368532355843
sg10
I00
sg11
F-775241.0
ssS'WAKEHAM JOHN'
p102
(dp103
g3
F258741.0
sg4
F0.1951219512195122
sg5
F750000.0
sg6
F1308111.0
sg7
F1095040.0
sg8
F1297049.0
sg9
F0.22402368532355843
sg10
I00
sg11
F-151927.0
ssS'POWERS WILLIAM'
p104
(dp105
g3
F258741.0
sg4
F0.0
sg5
F750000.0
sg6
F2196433.0
sg7
F1095040.0
sg8
F1297049.0
sg9
F0.0
sg10
I00
sg11
F-17500.0
ssS'GOLD JOSEPH'
p106
(dp107
g3
F272880.0
sg4
F0.1951219512195122
sg5
F750000.0
sg6
F3024584.0
sg7
F877611.0
sg8
F436515.0
sg9
F0.22402368532355843
sg10
I00
sg11
F-151927.0
ssS'BANNANTINE JAMES M'
p108
(dp109
g3
F477.0
sg4
F0.0
sg5
F750000.0
sg6
F6159684.0
sg7
F5243487.0
sg8
F4046157.0
sg9
F0.06890459363957598
sg10
I00
sg11
F-5104.0
ssS'DUNCAN JOHN H'
p110
(dp111
g3
F258741.0
sg4
F0.1951219512195122
sg5
F750000.0
sg6
F449242.0
sg7
F371750.0
sg8
F371750.0
sg9
F0.22402368532355843
sg10
I00
sg11
F-25000.0
ssS'SHAPIRO RICHARD S'
p112
(dp113
g3
F269076.0
sg4
F0.053497942386831275
sg5
F650000.0
sg6
F2044549.0
sg7
F987001.0
sg8
F607837.0
sg9
F0.058382753265437126
sg10
I00
sg11
F-151927.0
ssS'SHERRIFF JOHN R'
p114
(dp115
g3
F428780.0
sg4
F0.25
sg5
F1500000.0
sg6
F7464370.0
sg7
F3128982.0
sg8
F1835558.0
sg9
F0.258785691873235
sg10
I00
sg11
F-151927.0
ssS'SHELBY REX'
p116
(dp117
g3
F211844.0
sg4
F0.358974358974359
sg5
F200000.0
sg6
F4497501.0
sg7
F2493616.0
sg8
F1624396.0
sg9
F0.41675213675213674
sg10
I01
sg11
F-4167.0
ssS'LEMAISTRE CHARLES'
p118
(dp119
g3
F258741.0
sg4
F0.1951219512195122
sg5
F750000.0
sg6
F500370.0
sg7
F412878.0
sg8
F412878.0
sg9
F0.22402368532355843
sg10
I00
sg11
F-25000.0
ssS'DEFFNER JOSEPH M'
p120
(dp121
g3
F206121.0
sg4
F0.05405405405405406
sg5
F600000.0
sg6
F1367860.0
sg7
F159211.0
sg8
F17378.0
sg9
F0.2151184798243622
sg10
I00
sg11
F-151927.0
ssS'KISHKILL JOSEPH G'
p122
(dp123
g3
F174246.0
sg4
F0.1951219512195122
sg5
F750000.0
sg6
F1739242.0
sg7
F1034346.0
sg8
F1297049.0
sg9
F0.22402368532355843
sg10
I00
sg11
F-51042.0
ssS'WHALLEY LAWRENCE G'
p124
(dp125
g3
F510364.0
sg4
F0.04316546762589928
sg5
F3000000.0
sg6
F10756711.0
sg7
F6079137.0
sg8
F3282960.0
sg9
F0.07406761083905761
sg10
I00
sg11
F-151927.0
ssS'MCCARTY DANNY J'
p126
(dp127
g3
F258741.0
sg4
F0.009302325581395349
sg5
F750000.0
sg6
F1860324.0
sg7
F758931.0
sg8
F664375.0
sg9
F0.026748243236664016
sg10
I00
sg11
F-151927.0
ssS'MCCONNELL MICHAEL S'
p128
(dp129
g3
F365038.0
sg4
F0.07075127644055434
sg5
F1100000.0
sg6
F5202643.0
sg7
F3101279.0
sg8
F1623010.0
sg9
F0.09838720314527047
sg10
I00
sg11
F-151927.0
ssS'DELAINEY DAVID W'
p130
(dp131
g3
F365163.0
sg4
F0.198435972629521
sg5
F3000000.0
sg6
F8362240.0
sg7
F3614261.0
sg8
F2291113.0
sg9
F0.2197744789340797
sg10
I01
sg11
F-151927.0
ssS'SULLIVAN-SHAKLOVITZ COLLEEN'
p132
(dp133
g3
F162779.0
sg4
F0.1951219512195122
sg5
F100000.0
sg6
F2361731.0
sg7
F1362375.0
sg8
F1362375.0
sg9
F0.22402368532355843
sg10
I00
sg11
F-151927.0
ssS'WROBEL BRUCE'
p134
(dp135
g3
F258741.0
sg4
F0.1951219512195122
sg5
F750000.0
sg6
F1240523.0
sg7
F139130.0
sg8
F139130.0
sg9
F0.22402368532355843
sg10
I00
sg11
F-151927.0
ssS'LINDHOLM TOD A'
p136
(dp137
g3
F236457.0
sg4
F0.1951219512195122
sg5
F200000.0
sg6
F3940097.0
sg7
F3064208.0
sg8
F2549361.0
sg9
F0.22402368532355843
sg10
I00
sg11
F-151927.0
ssS'MEYER JEROME J'
p138
(dp139
g3
F258741.0
sg4
F0.1951219512195122
sg5
F750000.0
sg6
F1097191.0
sg7
F1095040.0
sg8
F1297049.0
sg9
F0.22402368532355843
sg10
I00
sg11
F-38346.0
ssS'LAY KENNETH L'
p140
(dp141
g3
F1072321.0
sg4
F0.4444444444444444
sg5
F7000000.0
sg6
F152669871.0
sg7
F49110078.0
sg8
F34348384.0
sg9
F0.47322984112125227
sg10
I01
sg11
F-300000.0
ssS'BUTTS ROBERT H'
p142
(dp143
g3
F261516.0
sg4
F0.1951219512195122
sg5
F750000.0
sg6
F1689201.0
sg7
F417619.0
sg8
F1297049.0
sg9
F0.22402368532355843
sg10
I00
sg11
F-75000.0
ssS'OLSON CINDY K'
p144
(dp145
g3
F329078.0
sg4
F0.28846153846153844
sg5
F750000.0
sg6
F3928320.0
sg7
F2606763.0
sg8
F1637034.0
sg9
F0.3053534303534303
sg10
I00
sg11
F-151927.0
ssS'MCDONALD REBECCA'
p146
(dp147
g3
F258741.0
sg4
F0.07692307692307693
sg5
F750000.0
sg6
F2792759.0
sg7
F1691366.0
sg8
F757301.0
sg9
F0.1373257614868353
sg10
I00
sg11
F-151927.0
ssS'CUMBERLAND MICHAEL S'
p148
(dp149
g3
F184899.0
sg4
F0.1951219512195122
sg5
F325000.0
sg6
F1015896.0
sg7
F207940.0
sg8
F1297049.0
sg9
F0.22402368532355843
sg10
I00
sg11
F-151927.0
ssS'GAHN ROBERT S'
p150
(dp151
g3
F192008.0
sg4
F0.1951219512195122
sg5
F509870.0
sg6
F1219192.0
sg7
F318607.0
sg8
F83237.0
sg9
F0.22402368532355843
sg10
I00
sg11
F-1042.0
ssS'MCCLELLAN GEORGE'
p152
(dp153
g3
F263413.0
sg4
F0.0
sg5
F900000.0
sg6
F2266624.0
sg7
F947861.0
sg8
F506765.0
sg9
F0.02981651376146789
sg10
I00
sg11
F-125000.0
ssS'HERMANN ROBERT J'
p154
(dp155
g3
F262663.0
sg4
F0.1951219512195122
sg5
F700000.0
sg6
F1965593.0
sg7
F668132.0
sg8
F187500.0
sg9
F0.22402368532355843
sg10
I00
sg11
F-280000.0
ssS'SCRIMSHAW MATTHEW'
p156
(dp157
g3
F258741.0
sg4
F0.1951219512195122
sg5
F750000.0
sg6
F1860950.0
sg7
F759557.0
sg8
F759557.0
sg9
F0.22402368532355843
sg10
I00
sg11
F-151927.0
ssS'GATHMANN WILLIAM D'
p158
(dp159
g3
F258741.0
sg4
F0.1951219512195122
sg5
F750000.0
sg6
F3046753.0
sg7
F1945360.0
sg8
F1753766.0
sg9
F0.22402368532355843
sg10
I00
sg11
F-151927.0
ssS'HAEDICKE MARK E'
p160
(dp161
g3
F374125.0
sg4
F0.03142709943328181
sg5
F1150000.0
sg6
F4662159.0
sg7
F803094.0
sg8
F608750.0
sg9
F0.0763260767343544
sg10
I00
sg11
F-934484.0
ssS'BOWEN JR RAYMOND M'
p162
(dp163
g3
F278601.0
sg4
F0.5555555555555556
sg5
F1350000.0
sg6
F2921644.0
sg7
F252055.0
sg8
F1297049.0
sg9
F0.6309053940916158
sg10
I01
sg11
F-833.0
ssS'GILLIS JOHN'
p164
(dp165
g3
F258741.0
sg4
F0.1951219512195122
sg5
F750000.0
sg6
F1187034.0
sg7
F85641.0
sg8
F9803.0
sg9
F0.22402368532355843
sg10
I00
sg11
F-151927.0
ssS'FITZGERALD JAY L'
p166
(dp167
g3
F199157.0
sg4
F0.5
sg5
F350000.0
sg6
F3036093.0
sg7
F1621236.0
sg8
F664461.0
sg9
F0.5010683760683761
sg10
I00
sg11
F-151927.0
ssS'MORAN MICHAEL P'
p168
(dp169
g3
F258741.0
sg4
F0.0
sg5
F750000.0
sg6
F1322534.0
sg7
F221141.0
sg8
F59539.0
sg9
F0.0
sg10
I00
sg11
F-151927.0
ssS'REDMOND BRIAN L'
p170
(dp171
g3
F96840.0
sg4
F0.22171945701357465
sg5
F750000.0
sg6
F8001853.0
sg7
F7890324.0
sg8
F7509039.0
sg9
F0.34380204229185113
sg10
I00
sg11
F-151927.0
ssS'BAZELIDES PHILIP J'
p172
(dp173
g3
F80818.0
sg4
F0.1951219512195122
sg5
F750000.0
sg6
F2459777.0
sg7
F1599641.0
sg8
F1599641.0
sg9
F0.22402368532355843
sg10
I00
sg11
F-151927.0
ssS'BELDEN TIMOTHY N'
p174
(dp175
g3
F213999.0
sg4
F0.2231404958677686
sg5
F5249999.0
sg6
F6612335.0
sg7
F1110705.0
sg8
F953136.0
sg9
F0.2516725944787059
sg10
I01
sg11
F-2334434.0
ssS'DURAN WILLIAM D'
p176
(dp177
g3
F210692.0
sg4
F0.25
sg5
F750000.0
sg6
F3734173.0
sg7
F1640910.0
sg8
F1451869.0
sg9
F0.3672566371681416
sg10
I00
sg11
F-151927.0
ssS'THORN TERENCE H'
p178
(dp179
g3
F222093.0
sg4
F0.0
sg5
F750000.0
sg6
F5729249.0
sg7
F4817796.0
sg8
F4452476.0
sg9
F0.0
sg10
I00
sg11
F-151927.0
ssS'FASTOW ANDREW S'
p180
(dp181
g3
F440698.0
sg4
F0.1951219512195122
sg5
F1300000.0
sg6
F4218495.0
sg7
F1794412.0
sg8
F1297049.0
sg9
F0.22402368532355843
sg10
I01
sg11
F-1386055.0
ssS'FOY JOE'
p182
(dp183
g3
F258741.0
sg4
F0.0
sg5
F750000.0
sg6
F525189.0
sg7
F343434.0
sg8
F343434.0
sg9
F0.0
sg10
I00
sg11
F-151927.0
ssS'CALGER CHRISTOPHER F'
p184
(dp185
g3
F240189.0
sg4
F0.1736111111111111
sg5
F1250000.0
sg6
F1765324.0
sg7
F126027.0
sg8
F1297049.0
sg9
F0.25020849371311266
sg10
I01
sg11
F-262500.0
ssS'RICE KENNETH D'
p186
(dp187
g3
F420636.0
sg4
F0.2222222222222222
sg5
F1750000.0
sg6
F23047589.0
sg7
F22542539.0
sg8
F19794175.0
sg9
F0.2686310620012277
sg10
I01
sg11
F-3504386.0
ssS'KAMINSKI WINCENTY J'
p188
(dp189
g3
F275101.0
sg4
F0.011901447661469933
sg5
F400000.0
sg6
F2062858.0
sg7
F976037.0
sg8
F850010.0
sg9
F0.020800948421183414
sg10
I00
sg11
F-151927.0
ssS'COX DAVID'
p190
(dp191
g3
F314288.0
sg4
F0.12121212121212122
sg5
F800000.0
sg6
F1597026.0
sg7
F495633.0
sg8
F117551.0
sg9
F0.12121212121212122
sg10
I00
sg11
F-41250.0
ssS'OVERDYKE JR JERE C'
p192
(dp193
g3
F94941.0
sg4
F0.1951219512195122
sg5
F750000.0
sg6
F7557381.0
sg7
F7307594.0
sg8
F5266578.0
sg9
F0.22402368532355843
sg10
I00
sg11
F-151927.0
ssS'PEREIRA PAULO V. FERRAZ'
p194
(dp195
g3
F258741.0
sg4
F0.1951219512195122
sg5
F750000.0
sg6
F1122982.0
sg7
F1095040.0
sg8
F1297049.0
sg9
F0.22402368532355843
sg10
I00
sg11
F-101250.0
ssS'STABLER FRANK'
p196
(dp197
g3
F239502.0
sg4
F0.1951219512195122
sg5
F500000.0
sg6
F1623821.0
sg7
F511734.0
sg8
F1297049.0
sg9
F0.22402368532355843
sg10
I00
sg11
F-151927.0
ssS'SKILLING JEFFREY K'
p198
(dp199
g3
F1111258.0
sg4
F0.2777777777777778
sg5
F5600000.0
sg6
F34776388.0
sg7
F26093672.0
sg8
F19250000.0
sg9
F0.3020402536531569
sg10
I01
sg11
F-151927.0
ssS'BLAKE JR. NORMAN P'
p200
(dp201
g3
F258741.0
sg4
F0.1951219512195122
sg5
F750000.0
sg6
F1096319.0
sg7
F1095040.0
sg8
F1297049.0
sg9
F0.22402368532355843
sg10
I00
sg11
F-113784.0
ssS'SHERRICK JEFFREY B'
p202
(dp203
g3
F258741.0
sg4
F0.72
sg5
F750000.0
sg6
F2933861.0
sg7
F1832468.0
sg8
F1426469.0
sg9
F0.7836215334420881
sg10
I00
sg11
F-151927.0
ssS'PRENTICE JAMES'
p204
(dp205
g3
F258741.0
sg4
F0.1951219512195122
sg5
F750000.0
sg6
F1659388.0
sg7
F1095040.0
sg8
F886231.0
sg9
F0.22402368532355843
sg10
I00
sg11
F-151927.0
ssS'GRAY RODNEY'
p206
(dp207
g3
F6615.0
sg4
F0.1951219512195122
sg5
F750000.0
sg6
F2241698.0
sg7
F1095040.0
sg8
F1297049.0
sg9
F0.22402368532355843
sg10
I00
sg11
F-151927.0
ssS'PICKERING MARK R'
p208
(dp209
g3
F655037.0
sg4
F0.0
sg5
F300000.0
sg6
F1415488.0
sg7
F28798.0
sg8
F28798.0
sg9
F0.0077951002227171495
sg10
I00
sg11
F-151927.0
ssS'NOLES JAMES L'
p210
(dp211
g3
F258741.0
sg4
F0.1951219512195122
sg5
F750000.0
sg6
F1143106.0
sg7
F368705.0
sg8
F1297049.0
sg9
F0.22402368532355843
sg10
I00
sg11
F-151927.0
ssS'KEAN STEVEN J'
p212
(dp213
g3
F404338.0
sg4
F0.05725699067909454
sg5
F1000000.0
sg6
F7901164.0
sg7
F6153642.0
sg8
F2022048.0
sg9
F0.06823393908743702
sg10
I00
sg11
F-151927.0
ssS'FOWLER PEGGY'
p214
(dp215
g3
F258741.0
sg4
F0.0
sg5
F750000.0
sg6
F2986141.0
sg7
F1884748.0
sg8
F1324578.0
sg9
F0.0
sg10
I00
sg11
F-151927.0
ssS'WASAFF GEORGE'
p216
(dp217
g3
F259996.0
sg4
F0.23333333333333334
sg5
F325000.0
sg6
F3090822.0
sg7
F2056427.0
sg8
F1668260.0
sg9
F0.28833333333333333
sg10
I00
sg11
F-583325.0
ssS'WHITE JR THOMAS E'
p218
(dp219
g3
F317543.0
sg4
F0.1951219512195122
sg5
F450000.0
sg6
F17078482.0
sg7
F15144123.0
sg8
F1297049.0
sg9
F0.22402368532355843
sg10
I00
sg11
F-151927.0
ssS'CHRISTODOULOU DIOMEDES'
p220
(dp221
g3
F258741.0
sg4
F0.1951219512195122
sg5
F750000.0
sg6
F7179278.0
sg7
F6077885.0
sg8
F5127155.0
sg9
F0.22402368532355843
sg10
I00
sg11
F-151927.0
ssS'ALLEN PHILLIP K'
p222
(dp223
g3
F201955.0
sg4
F0.029612756264236904
sg5
F4175000.0
sg6
F6213983.0
sg7
F1729541.0
sg8
F1729541.0
sg9
F0.04580848334900603
sg10
I00
sg11
F-3081055.0
ssS'SHARP VICTORIA T'
p224
(dp225
g3
F248146.0
sg4
F0.04411764705882353
sg5
F600000.0
sg6
F2070647.0
sg7
F494136.0
sg8
F281073.0
sg9
F0.05177070828331333
sg10
I00
sg11
F-151927.0
ssS'JAEDICKE ROBERT'
p226
(dp227
g3
F258741.0
sg4
F0.1951219512195122
sg5
F750000.0
sg6
F515500.0
sg7
F431750.0
sg8
F431750.0
sg9
F0.22402368532355843
sg10
I00
sg11
F-25000.0
ssS'WINOKUR JR. HERBERT S'
p228
(dp229
g3
F258741.0
sg4
F0.1951219512195122
sg5
F750000.0
sg6
F1180032.0
sg7
F1095040.0
sg8
F1297049.0
sg9
F0.22402368532355843
sg10
I00
sg11
F-25000.0
ssS'BROWN MICHAEL'
p230
(dp231
g3
F258741.0
sg4
F0.024390243902439025
sg5
F750000.0
sg6
F1144328.0
sg7
F1095040.0
sg8
F1297049.0
sg9
F0.03313856153366379
sg10
I00
sg11
F-151927.0
ssS'BADUM JAMES P'
p232
(dp233
g3
F258741.0
sg4
F0.1951219512195122
sg5
F750000.0
sg6
F440283.0
sg7
F257817.0
sg8
F257817.0
sg9
F0.22402368532355843
sg10
I00
sg11
F-151927.0
ssS'HUGHES JAMES A'
p234
(dp235
g3
F258741.0
sg4
F0.14705882352941177
sg5
F750000.0
sg6
F2219787.0
sg7
F1118394.0
sg8
F754966.0
sg9
F0.19573754397447435
sg10
I00
sg11
F-151927.0
ssS'REYNOLDS LAWRENCE'
p236
(dp237
g3
F76399.0
sg4
F0.1951219512195122
sg5
F100000.0
sg6
F4616366.0
sg7
F4221891.0
sg8
F4160672.0
sg9
F0.22402368532355843
sg10
I00
sg11
F-200000.0
ssS'DIMICHELE RICHARD G'
p238
(dp239
g3
F262788.0
sg4
F0.1951219512195122
sg5
F1000000.0
sg6
F10685933.0
sg7
F8317782.0
sg8
F8191755.0
sg9
F0.22402368532355843
sg10
I00
sg11
F-151927.0
ssS'BHATNAGAR SANJAY'
p240
(dp241
g3
F258741.0
sg4
F0.034482758620689655
sg5
F750000.0
sg6
F16551330.0
sg7
F1095040.0
sg8
F2604490.0
sg9
F0.034482758620689655
sg10
I00
sg11
F-151927.0
ssS'CARTER REBECCA C'
p242
(dp243
g3
F261809.0
sg4
F0.4666666666666667
sg5
F300000.0
sg6
F1572597.0
sg7
F1095040.0
sg8
F1297049.0
sg9
F0.5596153846153846
sg10
I00
sg11
F-159792.0
ssS'BUCHANAN HAROLD G'
p244
(dp245
g3
F248017.0
sg4
F0.0
sg5
F500000.0
sg6
F2069142.0
sg7
F1014505.0
sg8
F825464.0
sg9
F0.0
sg10
I00
sg11
F-151927.0
ssS'YEAP SOON'
p246
(dp247
g3
F258741.0
sg4
F0.1951219512195122
sg5
F750000.0
sg6
F247855.0
sg7
F192758.0
sg8
F192758.0
sg9
F0.22402368532355843
sg10
I00
sg11
F-151927.0
ssS'MURRAY JULIA H'
p248
(dp249
g3
F229284.0
sg4
F0.044444444444444446
sg5
F400000.0
sg6
F1409655.0
sg7
F597461.0
sg8
F400478.0
sg9
F0.04946269261962693
sg10
I00
sg11
F-151927.0
ssS'GARLAND C KEVIN'
p250
(dp251
g3
F231946.0
sg4
F0.6136363636363636
sg5
F850000.0
sg6
F2462622.0
sg7
F896153.0
sg8
F636246.0
sg9
F0.6614832535885168
sg10
I00
sg11
F-151927.0
ssS'DODSON KEITH'
p252
(dp253
g3
F221003.0
sg4
F0.21428571428571427
sg5
F70000.0
sg6
F1414981.0
sg7
F1095040.0
sg8
F1297049.0
sg9
F0.27110389610389607
sg10
I00
sg11
F-151927.0
ssS'YEAGER F SCOTT'
p254
(dp255
g3
F158403.0
sg4
F0.1951219512195122
sg5
F750000.0
sg6
F12245058.0
sg7
F11884758.0
sg8
F8308552.0
sg9
F0.22402368532355843
sg10
I01
sg11
F-151927.0
ssS'HIRKO JOSEPH'
p256
(dp257
g3
F258741.0
sg4
F0.1951219512195122
sg5
F750000.0
sg6
F30857157.0
sg7
F30766064.0
sg8
F30766064.0
sg9
F0.22402368532355843
sg10
I01
sg11
F-151927.0
ssS'DIETRICH JANET R'
p258
(dp259
g3
F250100.0
sg4
F0.2222222222222222
sg5
F600000.0
sg6
F3275551.0
sg7
F1865087.0
sg8
F1550019.0
sg9
F0.34080698116467945
sg10
I00
sg11
F-151927.0
ssS'DERRICK JR. JAMES V'
p260
(dp261
g3
F492375.0
sg4
F0.022002200220022004
sg5
F800000.0
sg6
F9382894.0
sg7
F8831913.0
sg8
F8831913.0
sg9
F0.05134653767990279
sg10
I00
sg11
F-1284000.0
ssS'FREVERT MARK A'
p262
(dp263
g3
F1060932.0
sg4
F0.2857142857142857
sg5
F2000000.0
sg6
F31874715.0
sg7
F14622185.0
sg8
F10433518.0
sg9
F0.3596074154852781
sg10
I00
sg11
F-3367011.0
ssS'PAI LOU L'
p264
(dp265
g3
F261879.0
sg4
F0.1951219512195122
sg5
F1000000.0
sg6
F26941313.0
sg7
F23817930.0
sg8
F15364167.0
sg9
F0.22402368532355843
sg10
I00
sg11
F-151927.0
ssS'BAY FRANKLIN R'
p266
(dp267
g3
F239671.0
sg4
F0.1951219512195122
sg5
F400000.0
sg6
F890710.0
sg7
F63014.0
sg8
F1297049.0
sg9
F0.22402368532355843
sg10
I00
sg11
F-201641.0
ssS'HAYSLETT RODERICK J'
p268
(dp269
g3
F258741.0
sg4
F0.03581526861451461
sg5
F750000.0
sg6
F1448056.0
sg7
F346663.0
sg8
F1297049.0
sg9
F0.04902780164584719
sg10
I00
sg11
F-151927.0
ssS'FUGH JOHN L'
p270
(dp271
g3
F258741.0
sg4
F0.1951219512195122
sg5
F750000.0
sg6
F226969.0
sg7
F176378.0
sg8
F176378.0
sg9
F0.22402368532355843
sg10
I00
sg11
F-151927.0
ssS'FALLON JAMES B'
p272
(dp273
g3
F304588.0
sg4
F0.49333333333333335
sg5
F2500000.0
sg6
F6008739.0
sg7
F2332399.0
sg8
F940257.0
sg9
F0.5172649572649572
sg10
I00
sg11
F-151927.0
ssS'KOENIG MARK E'
p274
(dp275
g3
F309946.0
sg4
F0.2459016393442623
sg5
F700000.0
sg6
F3507476.0
sg7
F1920055.0
sg8
F671737.0
sg9
F0.2682268288977585
sg10
I01
sg11
F-151927.0
ssS'SAVAGE FRANK'
p276
(dp277
g3
F258741.0
sg4
F0.1951219512195122
sg5
F750000.0
sg6
F1098790.0
sg7
F1095040.0
sg8
F1297049.0
sg9
F0.22402368532355843
sg10
I00
sg11
F-121284.0
ssS'IZZO LAWRENCE L'
p278
(dp279
g3
F85274.0
sg4
F0.2631578947368421
sg5
F750000.0
sg6
F7799576.0
sg7
F5819980.0
sg8
F2165172.0
sg9
F0.3196095076400679
sg10
I00
sg11
F-151927.0
ssS'TILNEY ELIZABETH A'
p280
(dp281
g3
F247338.0
sg4
F0.5789473684210527
sg5
F300000.0
sg6
F1567435.0
sg7
F1168042.0
sg8
F591250.0
sg9
F0.6006864988558352
sg10
I00
sg11
F-575000.0
ssS'MARTIN AMANDA K'
p282
(dp283
g3
F349487.0
sg4
F0.0
sg5
F750000.0
sg6
F10477322.0
sg7
F2070306.0
sg8
F2070306.0
sg9
F0.005256241787122208
sg10
I00
sg11
F-151927.0
ssS'BUY RICHARD B'
p284
(dp285
g3
F330546.0
sg4
F0.06742640075973409
sg5
F900000.0
sg6
F5800172.0
sg7
F3444470.0
sg8
F2542813.0
sg9
F0.11170684356416213
sg10
I00
sg11
F-694862.0
ssS'GRAMM WENDY L'
p286
(dp287
g3
F258741.0
sg4
F0.1951219512195122
sg5
F750000.0
sg6
F1214332.0
sg7
F1095040.0
sg8
F1297049.0
sg9
F0.22402368532355843
sg10
I00
sg11
F-151927.0
ssS'CAUSEY RICHARD A'
p288
(dp289
g3
F415189.0
sg4
F0.24489795918367346
sg5
F1000000.0
sg6
F4370821.0
sg7
F2502063.0
sg8
F1297049.0
sg9
F0.2755533503041809
sg10
I01
sg11
F-235000.0
ssS'TAYLOR MITCHELL S'
p290
(dp291
g3
F265214.0
sg4
F0.0
sg5
F600000.0
sg6
F4837711.0
sg7
F3745048.0
sg8
F3181250.0
sg9
F0.0
sg10
I00
sg11
F-151927.0
ssS'DONAHUE JR JEFFREY M'
p292
(dp293
g3
F278601.0
sg4
F0.5
sg5
F800000.0
sg6
F1956748.0
sg7
F1080988.0
sg8
F765920.0
sg9
F0.7173410404624277
sg10
I00
sg11
F-300000.0
ssS'GLISAN JR BEN F'
p294
(dp295
g3
F274975.0
sg4
F0.375
sg5
F600000.0
sg6
F2050830.0
sg7
F778546.0
sg8
F384728.0
sg9
F0.4345647193585338
sg10
I01
sg11
F-151927.0
ss.